(dp0
S'node_count'
p1
I20
sS'edges'
p2
(lp3
(I0
I1
F9.99684773549906
tp4
a(I1
I2
F7.3115381227646274
tp5
a(I2
I3
F6.051348341727104
tp6
a(I3
I4
F2.8140933677836544
tp7
a(I4
I5
F3.029775831564735
tp8
a(I5
I6
F3.5491630190934567
tp9
a(I6
I7
F6.4843880086142756
tp10
a(I7
I8
F7.082632664220171
tp11
a(I8
I9
F2.3893487379581178
tp12
a(I9
I10
F5.150810923854263
tp13
a(I10
I11
F5.803344406882069
tp14
a(I11
I12
F0.03462960125670045
tp15
a(I12
I13
F9.587979099673044
tp16
a(I13
I14
F5.008427300748094
tp17
a(I14
I15
F6.201850555958492
tp18
a(I15
I16
F8.259800974014274
tp19
a(I16
I17
F0.9849691788374126
tp20
a(I17
I18
F6.049426709121263
tp21
a(I18
I19
F1.6037109149544693
tp22
a(I18
I9
F2.848798559752088
tp23
a(I4
I9
F5.42753094457627
tp24
a(I12
I9
F5.789039140191865
tp25
a(I12
I5
F6.3230313910583185
tp26
a(I5
I19
F8.285660779475656
tp27
a(I18
I10
F9.408998794319244
tp28
a(I8
I12
F2.9788097759410714
tp29
a(I5
I0
F5.737984356627317
tp30
a(I2
I15
F3.0833162249495363
tp31
a(I6
I5
F6.914845996546358
tp32
a(I0
I18
F2.3149211533417136
tp33
a(I0
I19
F5.669953993290458
tp34
a(I18
I12
F7.9197535679759765
tp35
a(I17
I19
F8.310108411626079
tp36
a(I5
I11
F2.9605614390748736
tp37
a(I12
I16
F9.100993869935966
tp38
a(I7
I18
F2.1337405625899164
tp39
a(I12
I5
F9.30734213117813
tp40
a(I8
I18
F6.635790440547911
tp41
a(I2
I15
F3.2046436025765512
tp42
a(I0
I15
F3.4782410559563717
tp43
a(I0
I15
F3.7975141868044506
tp44
a(I0
I6
F5.314831164824985
tp45
a(I18
I6
F9.105818779445531
tp46
a(I9
I10
F9.290532294955508
tp47
a(I15
I11
F5.046873082341442
tp48
a(I7
I17
F1.2716466841673413
tp49
a(I6
I7
F3.908515501104138
tp50
a(I9
I7
F3.9078094761299442
tp51
a(I6
I1
F2.9455386626624245
tp52
a(I2
I3
F6.807475968339741
tp53
a(I12
I0
F9.678379915606783
tp54
a(I17
I3
F5.208482294170333
tp55
a(I16
I13
F7.209902860605819
tp56
a(I14
I12
F4.223290335860188
tp57
a(I10
I8
F8.498421645605802
tp58
a(I17
I13
F0.10419084197465622
tp59
a(I19
I4
F6.187826273231757
tp60
a(I14
I10
F5.479678225848774
tp61
a(I5
I19
F1.5699504060006986
tp62
a(I2
I10
F4.629435592364693
tp63
a(I1
I5
F0.9869812110622189
tp64
a(I7
I8
F4.139746100784043
tp65
a(I6
I10
F3.3963801855467777
tp66
a(I18
I8
F2.6035457871064005
tp67
a(I11
I13
F9.201895029229526
tp68
a(I15
I12
F9.882989052590395
tp69
a(I11
I12
F4.737865499683891
tp70
a(I12
I5
F2.47739802736863
tp71
a(I12
I6
F3.735315953099424
tp72
a(I6
I14
F8.437818394022377
tp73
a(I10
I7
F9.292914623715347
tp74
a(I14
I18
F5.516418944537026
tp75
a(I11
I15
F5.024841411792952
tp76
a(I9
I16
F1.6049880562030105
tp77
a(I16
I8
F2.611537301480288
tp78
a(I16
I12
F9.076088516900942
tp79
a(I8
I4
F8.27280234437586
tp80
a(I6
I5
F0.6867372401717864
tp81
a(I17
I18
F3.139825520215336
tp82
a(I15
I3
F5.060802497011789
tp83
a(I1
I7
F1.7472625537188147
tp84
a(I12
I11
F5.4630728959047135
tp85
a(I11
I2
F2.96958596843771
tp86
a(I1
I7
F6.280687978795914
tp87
a(I8
I19
F0.8412288706406423
tp88
a(I19
I17
F2.568774729477894
tp89
a(I17
I12
F9.89889013044002
tp90
a(I12
I6
F9.27264186492837
tp91
a(I3
I7
F9.477054137649358
tp92
a(I3
I10
F9.47069722119518
tp93
a(I3
I1
F4.208288730663213
tp94
a(I4
I13
F0.6666296389101389
tp95
a(I3
I6
F7.076345566607979
tp96
a(I12
I9
F2.6138307161226737
tp97
a(I3
I2
F0.8320380237109692
tp98
a(I15
I16
F9.716398672562558
tp99
a(I14
I19
F5.191527337181978
tp100
a(I14
I1
F0.5573025687326083
tp101
a(I7
I4
F6.4929727797040755
tp102
a(I8
I10
F5.6424194754055845
tp103
a(I6
I12
F7.390000510917596
tp104
a(I4
I0
F4.696764082029929
tp105
a(I8
I18
F1.8036312005251587
tp106
a(I2
I15
F0.2579929734474118
tp107
a(I2
I5
F3.895587538052107
tp108
a(I4
I5
F7.910941275343671
tp109
a(I4
I12
F6.219825197472248
tp110
a(I12
I7
F3.5989729594815625
tp111
a(I14
I0
F3.977339189263435
tp112
a(I19
I6
F5.216909030059612
tp113
a(I9
I5
F0.5961106346516909
tp114
a(I1
I10
F6.705948589969228
tp115
a(I1
I16
F9.056600675967031
tp116
a(I19
I4
F0.33883913957276857
tp117
a(I7
I17
F0.975082970020692
tp118
a(I17
I19
F6.3558953079403215
tp119
a(I9
I17
F9.512558557490639
tp120
a(I11
I16
F4.7651329782893725
tp121
a(I1
I4
F6.167168263193022
tp122
a(I13
I17
F3.0232651020472034
tp123
a(I18
I13
F8.201347906181676
tp124
a(I10
I17
F5.8455262099195675
tp125
a(I14
I1
F5.426768851273516
tp126
a(I15
I19
F1.228150482910234
tp127
a(I12
I17
F5.866687754254847
tp128
a(I12
I11
F6.730616078825275
tp129
a(I9
I7
F1.5620374556903538
tp130
a(I4
I12
F0.7633049853063012
tp131
a(I17
I18
F2.8416623383651496
tp132
a(I16
I9
F4.340840318916644
tp133
a(I0
I16
F0.4108806940412213
tp134
a(I6
I12
F3.6627829726049654
tp135
a(I16
I19
F4.1500931029216
tp136
a(I13
I9
F4.580330734663303
tp137
a(I2
I9
F5.594172373206719
tp138
a(I4
I1
F7.270696217625767
tp139
a(I11
I0
F2.348372151192165
tp140
a(I12
I9
F4.295851098037529
tp141
a(I8
I11
F3.7698530278080455
tp142
a(I10
I15
F7.558233777470694
tp143
a(I17
I5
F2.3530129368899475
tp144
a(I7
I9
F7.084325201779108
tp145
a(I3
I6
F4.459346380362104
tp146
a(I8
I15
F9.502336365780625
tp147
a(I9
I8
F4.932746701226708
tp148
a(I11
I10
F9.23270586302111
tp149
a(I0
I4
F9.436213531259149
tp150
a(I9
I0
F6.597408764252365
tp151
a(I6
I5
F7.638126197608037
tp152
a(I0
I12
F8.271734641349573
tp153
a(I11
I15
F8.830498444311864
tp154
a(I9
I17
F5.954982961665952
tp155
a(I18
I10
F9.59982764068698
tp156
a(I0
I15
F4.138073806243977
tp157
a(I16
I3
F7.436640985912865
tp158
a(I4
I13
F2.6108674109226815
tp159
a(I19
I9
F4.968103418765509
tp160
a(I16
I2
F4.671903771924643
tp161
a(I4
I9
F6.096141999996679
tp162
a(I0
I17
F9.568395832336357
tp163
a(I10
I5
F8.373081977122549
tp164
a(I8
I17
F6.8596473651725764
tp165
a(I1
I5
F1.8425087656452699
tp166
a(I2
I12
F6.357951152544112
tp167
a(I15
I16
F9.407499083753429
tp168
a(I7
I6
F4.525193122991192
tp169
a(I5
I7
F9.0057564300554
tp170
a(I18
I6
F0.1874943392989925
tp171
a(I17
I5
F0.5943480517217292
tp172
a(I13
I8
F1.127044043672365
tp173
a(I5
I9
F0.11334370967093887
tp174
a(I1
I14
F0.6400092329114415
tp175
a(I12
I10
F3.7181121702254885
tp176
a(I2
I12
F6.935604314169046
tp177
a(I10
I5
F7.622275497692438
tp178
a(I13
I0
F3.241512041511049
tp179
a(I2
I3
F1.6886279457737563
tp180
a(I2
I14
F6.282773158750202
tp181
a(I5
I6
F7.7833517432098285
tp182
a(I19
I6
F2.654249923156642
tp183
a(I8
I1
F0.9173611655297831
tp184
a(I13
I6
F0.1382292447639466
tp185
a(I16
I6
F4.829441871625429
tp186
a(I13
I7
F2.638485799903009
tp187
a(I8
I0
F2.9287344896840595
tp188
a(I9
I10
F8.349347889717013
tp189
a(I0
I9
F7.176664205714927
tp190
a(I18
I14
F4.161875707172258
tp191
a(I16
I4
F7.025637550918611
tp192
as.