(dp0
S'node_count'
p1
I20
sS'edges'
p2
(lp3
(I0
I1
F2.803213326825058
tp4
a(I1
I2
F8.412385829870022
tp5
a(I2
I3
F0.22906856331526892
tp6
a(I3
I4
F9.955387727975575
tp7
a(I4
I5
F9.871438290542775
tp8
a(I5
I6
F4.496128465973824
tp9
a(I6
I7
F6.702601982030619
tp10
a(I7
I8
F7.565973230156418
tp11
a(I8
I9
F4.608548922571378
tp12
a(I9
I10
F1.3026745676430174
tp13
a(I10
I11
F9.809654478317833
tp14
a(I11
I12
F4.328719010370383
tp15
a(I12
I13
F5.5890181624166635
tp16
a(I13
I14
F7.238710752013645
tp17
a(I14
I15
F8.730669851175028
tp18
a(I15
I16
F2.7698136425805076
tp19
a(I16
I17
F2.6904941176751462
tp20
a(I17
I18
F3.465912118243754
tp21
a(I18
I19
F3.436139999661215
tp22
a(I1
I3
I10
tp23
a(I6
I16
I10
tp24
a(I13
I6
I10
tp25
a(I12
I19
I10
tp26
a(I7
I0
I10
tp27
a(I13
I12
I10
tp28
a(I10
I6
I10
tp29
a(I15
I1
I10
tp30
a(I19
I6
I10
tp31
a(I17
I14
I10
tp32
a(I8
I16
I10
tp33
a(I11
I1
I10
tp34
a(I10
I17
I10
tp35
a(I14
I5
I10
tp36
a(I14
I11
I10
tp37
a(I2
I10
I10
tp38
a(I7
I10
I10
tp39
a(I17
I7
I10
tp40
a(I17
I8
I10
tp41
a(I18
I5
I10
tp42
a(I15
I11
I10
tp43
a(I1
I7
I10
tp44
a(I12
I8
I10
tp45
a(I15
I6
I10
tp46
a(I12
I14
I10
tp47
a(I1
I3
I10
tp48
a(I1
I9
I10
tp49
a(I16
I0
I10
tp50
a(I8
I11
I10
tp51
a(I7
I17
I10
tp52
a(I17
I10
I10
tp53
a(I16
I1
I10
tp54
a(I15
I9
I10
tp55
a(I8
I15
I10
tp56
a(I9
I8
I10
tp57
a(I7
I2
I10
tp58
a(I9
I8
I10
tp59
a(I6
I5
I10
tp60
a(I11
I10
I10
tp61
a(I0
I13
I10
tp62
a(I6
I12
I10
tp63
a(I10
I3
I10
tp64
a(I5
I10
I10
tp65
a(I7
I10
I10
tp66
a(I3
I9
I10
tp67
a(I15
I11
I10
tp68
a(I8
I1
I10
tp69
a(I11
I18
I10
tp70
a(I1
I10
I10
tp71
a(I6
I11
I10
tp72
a(I10
I11
I10
tp73
a(I4
I3
I10
tp74
a(I7
I17
I10
tp75
a(I9
I17
I10
tp76
a(I5
I16
I10
tp77
a(I19
I4
I10
tp78
a(I6
I5
I10
tp79
a(I14
I7
I10
tp80
a(I9
I14
I10
tp81
a(I3
I10
I10
tp82
a(I19
I16
I10
tp83
a(I3
I1
I10
tp84
a(I9
I15
I10
tp85
a(I8
I14
I10
tp86
a(I7
I12
I10
tp87
a(I14
I10
I10
tp88
a(I11
I13
I10
tp89
a(I12
I11
I10
tp90
a(I10
I4
I10
tp91
a(I0
I19
I10
tp92
a(I2
I4
I10
tp93
a(I9
I7
I10
tp94
a(I3
I16
I10
tp95
a(I17
I18
I10
tp96
a(I16
I15
I10
tp97
a(I5
I4
I10
tp98
a(I6
I16
I10
tp99
a(I1
I17
I10
tp100
a(I8
I5
I10
tp101
a(I12
I2
I10
tp102
a(I14
I1
I10
tp103
a(I8
I16
I10
tp104
a(I17
I10
I10
tp105
a(I17
I15
I10
tp106
a(I12
I9
I10
tp107
a(I6
I1
I10
tp108
a(I11
I6
I10
tp109
a(I2
I13
I10
tp110
a(I6
I13
I10
tp111
a(I0
I14
I10
tp112
a(I11
I15
I10
tp113
a(I10
I8
I10
tp114
a(I9
I19
I10
tp115
a(I16
I6
I10
tp116
a(I13
I18
I10
tp117
a(I14
I19
I10
tp118
a(I6
I11
I10
tp119
a(I14
I19
I10
tp120
a(I18
I0
I10
tp121
a(I16
I10
I10
tp122
a(I19
I5
I10
tp123
a(I13
I2
I10
tp124
a(I8
I15
I10
tp125
a(I5
I12
I10
tp126
a(I8
I15
I10
tp127
a(I18
I13
I10
tp128
a(I8
I13
I10
tp129
a(I4
I10
I10
tp130
a(I7
I6
I10
tp131
a(I2
I13
I10
tp132
a(I9
I4
I10
tp133
a(I13
I17
I10
tp134
a(I0
I5
I10
tp135
a(I3
I6
I10
tp136
a(I18
I1
I10
tp137
a(I0
I5
I10
tp138
a(I10
I4
I10
tp139
a(I3
I1
I10
tp140
a(I13
I14
I10
tp141
a(I11
I7
I10
tp142
a(I19
I13
I10
tp143
a(I4
I1
I10
tp144
a(I15
I9
I10
tp145
a(I8
I3
I10
tp146
a(I5
I0
I10
tp147
a(I18
I6
I10
tp148
a(I3
I12
I10
tp149
a(I8
I11
I10
tp150
a(I10
I16
I10
tp151
a(I8
I17
I10
tp152
a(I6
I19
I10
tp153
a(I18
I8
I10
tp154
a(I19
I13
I10
tp155
a(I3
I18
I10
tp156
a(I15
I14
I10
tp157
a(I9
I0
I10
tp158
a(I15
I1
I10
tp159
a(I17
I2
I10
tp160
a(I7
I14
I10
tp161
a(I6
I18
I10
tp162
a(I3
I11
I10
tp163
a(I9
I8
I10
tp164
a(I1
I6
I10
tp165
a(I17
I13
I10
tp166
a(I11
I6
I10
tp167
a(I7
I0
I10
tp168
a(I12
I13
I10
tp169
a(I8
I0
I10
tp170
a(I18
I8
I10
tp171
a(I14
I0
I10
tp172
a(I17
I1
I10
tp173
a(I9
I0
I10
tp174
a(I2
I4
I10
tp175
a(I11
I18
I10
tp176
a(I19
I5
I10
tp177
a(I10
I1
I10
tp178
a(I13
I3
I10
tp179
a(I13
I16
I10
tp180
a(I14
I8
I10
tp181
a(I10
I4
I10
tp182
a(I17
I11
I10
tp183
a(I18
I6
I10
tp184
a(I8
I5
I10
tp185
a(I19
I12
I10
tp186
a(I2
I8
I10
tp187
a(I18
I8
I10
tp188
a(I16
I7
I10
tp189
a(I1
I11
I10
tp190
a(I14
I6
I10
tp191
a(I0
I10
I10
tp192
as.