(dp0
S'node_count'
p1
I20
sS'edges'
p2
(lp3
(I0
I1
F5.741460536857125
tp4
a(I1
I2
F7.579191922802222
tp5
a(I2
I3
F2.469466089814021
tp6
a(I3
I4
F6.911997993131868
tp7
a(I4
I5
F0.8667163244916376
tp8
a(I5
I6
F9.071078240941958
tp9
a(I6
I7
F4.638022831355957
tp10
a(I7
I8
F1.9049102901192871
tp11
a(I8
I9
F0.32136901535870677
tp12
a(I9
I10
F3.5972247269158206
tp13
a(I10
I11
F2.795033180730658
tp14
a(I11
I12
F3.967509369360193
tp15
a(I12
I13
F5.067139816690301
tp16
a(I13
I14
F4.492212211603491
tp17
a(I14
I15
F5.496144274952734
tp18
a(I15
I16
F5.553662967128435
tp19
a(I16
I17
F1.1877174513475452
tp20
a(I17
I18
F7.1574803178585045
tp21
a(I18
I19
F6.8837627092222275
tp22
a(I3
I0
I10
tp23
a(I8
I5
I10
tp24
a(I3
I10
I10
tp25
a(I5
I6
I10
tp26
a(I0
I9
I10
tp27
a(I13
I14
I10
tp28
a(I0
I13
I10
tp29
a(I0
I1
I10
tp30
a(I11
I7
I10
tp31
a(I5
I12
I10
tp32
a(I11
I13
I10
tp33
a(I15
I7
I10
tp34
a(I14
I9
I10
tp35
a(I3
I11
I10
tp36
a(I0
I13
I10
tp37
a(I14
I1
I10
tp38
a(I17
I19
I10
tp39
a(I8
I15
I10
tp40
a(I19
I4
I10
tp41
a(I8
I13
I10
tp42
a(I3
I10
I10
tp43
a(I3
I17
I10
tp44
a(I16
I18
I10
tp45
a(I1
I3
I10
tp46
a(I13
I2
I10
tp47
a(I0
I16
I10
tp48
a(I16
I8
I10
tp49
a(I10
I12
I10
tp50
a(I16
I6
I10
tp51
a(I6
I7
I10
tp52
a(I19
I10
I10
tp53
a(I7
I9
I10
tp54
a(I5
I7
I10
tp55
a(I19
I9
I10
tp56
a(I3
I6
I10
tp57
a(I9
I2
I10
tp58
a(I11
I7
I10
tp59
a(I13
I2
I10
tp60
a(I18
I3
I10
tp61
a(I14
I15
I10
tp62
a(I16
I6
I10
tp63
a(I1
I15
I10
tp64
a(I13
I12
I10
tp65
a(I12
I18
I10
tp66
a(I3
I17
I10
tp67
a(I8
I7
I10
tp68
a(I14
I1
I10
tp69
a(I8
I19
I10
tp70
a(I6
I18
I10
tp71
a(I12
I16
I10
tp72
a(I15
I6
I10
tp73
a(I12
I4
I10
tp74
a(I7
I6
I10
tp75
a(I0
I14
I10
tp76
a(I12
I19
I10
tp77
a(I5
I16
I10
tp78
a(I2
I1
I10
tp79
a(I1
I8
I10
tp80
a(I10
I11
I10
tp81
a(I11
I15
I10
tp82
a(I13
I3
I10
tp83
a(I15
I16
I10
tp84
a(I18
I1
I10
tp85
a(I2
I5
I10
tp86
a(I10
I7
I10
tp87
a(I17
I1
I10
tp88
a(I2
I13
I10
tp89
a(I12
I13
I10
tp90
a(I17
I15
I10
tp91
a(I11
I17
I10
tp92
a(I13
I12
I10
tp93
a(I15
I8
I10
tp94
a(I19
I10
I10
tp95
a(I14
I0
I10
tp96
a(I14
I12
I10
tp97
a(I18
I6
I10
tp98
a(I15
I8
I10
tp99
a(I9
I16
I10
tp100
a(I7
I6
I10
tp101
a(I9
I4
I10
tp102
a(I13
I5
I10
tp103
a(I5
I6
I10
tp104
a(I16
I8
I10
tp105
a(I11
I7
I10
tp106
a(I17
I10
I10
tp107
a(I7
I19
I10
tp108
a(I9
I12
I10
tp109
a(I12
I15
I10
tp110
a(I17
I0
I10
tp111
a(I1
I4
I10
tp112
a(I5
I8
I10
tp113
a(I4
I8
I10
tp114
a(I9
I1
I10
tp115
a(I8
I17
I10
tp116
a(I19
I4
I10
tp117
a(I0
I9
I10
tp118
a(I8
I1
I10
tp119
a(I4
I3
I10
tp120
a(I17
I4
I10
tp121
a(I5
I10
I10
tp122
a(I13
I14
I10
tp123
a(I2
I14
I10
tp124
a(I18
I3
I10
tp125
a(I6
I14
I10
tp126
a(I17
I14
I10
tp127
a(I0
I14
I10
tp128
a(I10
I16
I10
tp129
a(I11
I1
I10
tp130
a(I10
I15
I10
tp131
a(I9
I6
I10
tp132
a(I4
I7
I10
tp133
a(I9
I14
I10
tp134
a(I4
I8
I10
tp135
a(I16
I6
I10
tp136
a(I15
I9
I10
tp137
a(I15
I9
I10
tp138
a(I14
I4
I10
tp139
a(I11
I7
I10
tp140
a(I18
I12
I10
tp141
a(I15
I2
I10
tp142
a(I8
I14
I10
tp143
a(I8
I4
I10
tp144
a(I15
I12
I10
tp145
a(I5
I10
I10
tp146
a(I7
I3
I10
tp147
a(I3
I2
I10
tp148
a(I15
I1
I10
tp149
a(I7
I10
I10
tp150
a(I1
I3
I10
tp151
a(I13
I19
I10
tp152
a(I19
I4
I10
tp153
a(I3
I1
I10
tp154
a(I4
I13
I10
tp155
a(I4
I6
I10
tp156
a(I19
I6
I10
tp157
a(I15
I2
I10
tp158
a(I18
I19
I10
tp159
a(I15
I17
I10
tp160
a(I16
I19
I10
tp161
a(I19
I12
I10
tp162
a(I16
I1
I10
tp163
a(I4
I15
I10
tp164
a(I8
I1
I10
tp165
a(I8
I17
I10
tp166
a(I2
I15
I10
tp167
a(I16
I5
I10
tp168
a(I8
I15
I10
tp169
a(I6
I13
I10
tp170
a(I13
I8
I10
tp171
a(I12
I0
I10
tp172
a(I8
I19
I10
tp173
a(I1
I14
I10
tp174
a(I19
I9
I10
tp175
a(I2
I19
I10
tp176
a(I2
I0
I10
tp177
a(I7
I11
I10
tp178
a(I19
I18
I10
tp179
a(I4
I14
I10
tp180
a(I16
I11
I10
tp181
a(I19
I1
I10
tp182
a(I9
I17
I10
tp183
a(I9
I7
I10
tp184
a(I1
I9
I10
tp185
a(I9
I0
I10
tp186
a(I16
I19
I10
tp187
a(I9
I3
I10
tp188
a(I0
I9
I10
tp189
a(I1
I12
I10
tp190
a(I9
I8
I10
tp191
a(I19
I5
I10
tp192
as.