(dp0
S'node_count'
p1
I20
sS'edges'
p2
(lp3
(I0
I1
F8.00913568728599
tp4
a(I1
I2
F7.826724992304608
tp5
a(I2
I3
F0.19115546788279647
tp6
a(I3
I4
F3.018265691873415
tp7
a(I4
I5
F9.812090105753008
tp8
a(I5
I6
F6.734862645353818
tp9
a(I6
I7
F6.029489761112485
tp10
a(I7
I8
F9.967370516058033
tp11
a(I8
I9
F8.210462594573208
tp12
a(I9
I10
F4.878928772155265
tp13
a(I10
I11
F8.11583331681643
tp14
a(I11
I12
F2.322407182206999
tp15
a(I12
I13
F7.175048756087907
tp16
a(I13
I14
F2.5111172771596104
tp17
a(I14
I15
F4.9067830820319465
tp18
a(I15
I16
F4.492695585019932
tp19
a(I16
I17
F6.870008119911079
tp20
a(I17
I18
F1.0918941843949492
tp21
a(I18
I19
F0.9189310657074579
tp22
a(I1
I14
I10
tp23
a(I8
I14
I10
tp24
a(I16
I0
I10
tp25
a(I5
I12
I10
tp26
a(I1
I12
I10
tp27
a(I15
I1
I10
tp28
a(I12
I0
I10
tp29
a(I16
I3
I10
tp30
a(I13
I15
I10
tp31
a(I19
I17
I10
tp32
a(I6
I16
I10
tp33
a(I7
I3
I10
tp34
a(I14
I16
I10
tp35
a(I8
I11
I10
tp36
a(I18
I10
I10
tp37
a(I3
I4
I10
tp38
a(I16
I17
I10
tp39
a(I7
I18
I10
tp40
a(I9
I6
I10
tp41
a(I9
I11
I10
tp42
a(I18
I13
I10
tp43
a(I15
I18
I10
tp44
a(I5
I1
I10
tp45
a(I9
I2
I10
tp46
a(I10
I19
I10
tp47
a(I17
I16
I10
tp48
a(I17
I8
I10
tp49
a(I17
I2
I10
tp50
a(I17
I5
I10
tp51
a(I19
I12
I10
tp52
a(I6
I5
I10
tp53
a(I6
I4
I10
tp54
a(I1
I9
I10
tp55
a(I19
I2
I10
tp56
a(I12
I8
I10
tp57
a(I0
I9
I10
tp58
a(I2
I11
I10
tp59
a(I12
I2
I10
tp60
a(I5
I11
I10
tp61
a(I9
I15
I10
tp62
a(I16
I11
I10
tp63
a(I4
I18
I10
tp64
a(I1
I6
I10
tp65
a(I7
I4
I10
tp66
a(I16
I9
I10
tp67
a(I2
I11
I10
tp68
a(I6
I15
I10
tp69
a(I11
I7
I10
tp70
a(I2
I0
I10
tp71
a(I19
I5
I10
tp72
a(I10
I18
I10
tp73
a(I8
I6
I10
tp74
a(I12
I2
I10
tp75
a(I13
I11
I10
tp76
a(I4
I18
I10
tp77
a(I13
I6
I10
tp78
a(I2
I17
I10
tp79
a(I5
I0
I10
tp80
a(I16
I0
I10
tp81
a(I4
I6
I10
tp82
a(I17
I6
I10
tp83
a(I2
I4
I10
tp84
a(I1
I17
I10
tp85
a(I3
I10
I10
tp86
a(I9
I14
I10
tp87
a(I17
I5
I10
tp88
a(I18
I13
I10
tp89
a(I4
I18
I10
tp90
a(I10
I13
I10
tp91
a(I18
I8
I10
tp92
a(I8
I15
I10
tp93
a(I1
I10
I10
tp94
a(I0
I3
I10
tp95
a(I0
I19
I10
tp96
a(I15
I19
I10
tp97
a(I13
I10
I10
tp98
a(I17
I9
I10
tp99
a(I19
I9
I10
tp100
a(I0
I1
I10
tp101
a(I16
I19
I10
tp102
a(I16
I3
I10
tp103
a(I14
I1
I10
tp104
a(I12
I17
I10
tp105
a(I9
I15
I10
tp106
a(I1
I8
I10
tp107
a(I7
I6
I10
tp108
a(I14
I12
I10
tp109
a(I9
I3
I10
tp110
a(I19
I8
I10
tp111
a(I3
I14
I10
tp112
a(I7
I8
I10
tp113
a(I16
I11
I10
tp114
a(I0
I16
I10
tp115
a(I6
I11
I10
tp116
a(I17
I16
I10
tp117
a(I12
I1
I10
tp118
a(I0
I15
I10
tp119
a(I7
I16
I10
tp120
a(I7
I1
I10
tp121
a(I17
I0
I10
tp122
a(I14
I10
I10
tp123
a(I0
I16
I10
tp124
a(I14
I5
I10
tp125
a(I7
I2
I10
tp126
a(I8
I4
I10
tp127
a(I9
I13
I10
tp128
a(I8
I15
I10
tp129
a(I7
I12
I10
tp130
a(I5
I1
I10
tp131
a(I13
I4
I10
tp132
a(I18
I19
I10
tp133
a(I1
I2
I10
tp134
a(I4
I19
I10
tp135
a(I17
I13
I10
tp136
a(I18
I11
I10
tp137
a(I9
I17
I10
tp138
a(I17
I9
I10
tp139
a(I17
I11
I10
tp140
a(I7
I13
I10
tp141
a(I3
I16
I10
tp142
a(I1
I8
I10
tp143
a(I3
I0
I10
tp144
a(I6
I1
I10
tp145
a(I11
I19
I10
tp146
a(I4
I6
I10
tp147
a(I17
I6
I10
tp148
a(I0
I5
I10
tp149
a(I8
I9
I10
tp150
a(I1
I0
I10
tp151
a(I8
I18
I10
tp152
a(I11
I12
I10
tp153
a(I8
I10
I10
tp154
a(I18
I11
I10
tp155
a(I8
I19
I10
tp156
a(I0
I15
I10
tp157
a(I9
I3
I10
tp158
a(I16
I19
I10
tp159
a(I3
I14
I10
tp160
a(I19
I0
I10
tp161
a(I10
I9
I10
tp162
a(I4
I8
I10
tp163
a(I2
I8
I10
tp164
a(I10
I18
I10
tp165
a(I4
I15
I10
tp166
a(I17
I5
I10
tp167
a(I18
I9
I10
tp168
a(I3
I6
I10
tp169
a(I13
I12
I10
tp170
a(I17
I15
I10
tp171
a(I19
I4
I10
tp172
a(I17
I19
I10
tp173
a(I1
I10
I10
tp174
a(I10
I0
I10
tp175
a(I4
I2
I10
tp176
a(I8
I1
I10
tp177
a(I3
I10
I10
tp178
a(I18
I4
I10
tp179
a(I16
I17
I10
tp180
a(I4
I5
I10
tp181
a(I17
I19
I10
tp182
a(I3
I16
I10
tp183
a(I2
I19
I10
tp184
a(I10
I15
I10
tp185
a(I13
I6
I10
tp186
a(I18
I19
I10
tp187
a(I1
I14
I10
tp188
a(I18
I0
I10
tp189
a(I6
I5
I10
tp190
a(I17
I10
I10
tp191
a(I16
I11
I10
tp192
as.